; Function Attrs: nounwind uwtable
define ptr @l_Lake_foldlUtf8M___rarg___lambda__6(i32 noundef %0, ptr noundef %1, ptr noundef %2, ptr noundef %3, ptr noundef %4) local_unnamed_addr #1 {
  %6 = shl i32 %0, 1
  %7 = and i32 %6, 126
  %8 = or disjoint i32 %7, 257
  %9 = zext nneg i32 %8 to i64
  %10 = inttoptr i64 %9 to ptr
  %11 = tail call ptr @lean_apply_2(ptr noundef %1, ptr noundef %4, ptr noundef nonnull %10) #7
  tail call void @lean_inc_heartbeat() #7
  %12 = tail call noalias ptr @mi_malloc_small(i64 noundef 32) #7
  %13 = icmp eq ptr %12, null
  br i1 %13, label %14, label %lean_alloc_closure.exit

14:                                               ; preds = %5
  tail call void @lean_internal_panic_out_of_memory() #8
  unreachable

lean_alloc_closure.exit:                          ; preds = %5
  %15 = getelementptr inbounds nuw i8, ptr %12, i64 4
  store i32 1, ptr %12, align 4, !tbaa !4
  store i32 -184549344, ptr %15, align 4
  %16 = getelementptr inbounds nuw i8, ptr %12, i64 8
  store ptr @l_Lake_foldlUtf8M___rarg___lambda__1, ptr %16, align 8, !tbaa !10
  %17 = getelementptr inbounds nuw i8, ptr %12, i64 16
  store i16 2, ptr %17, align 8, !tbaa !14
  %18 = getelementptr inbounds nuw i8, ptr %12, i64 18
  store i16 1, ptr %18, align 2, !tbaa !14
  %19 = getelementptr inbounds nuw i8, ptr %12, i64 24
  store ptr %2, ptr %19, align 8, !tbaa !10
  %20 = tail call ptr @lean_apply_4(ptr noundef %3, ptr noundef nonnull inttoptr (i64 1 to ptr), ptr noundef nonnull inttoptr (i64 1 to ptr), ptr noundef %11, ptr noundef nonnull %12) #7
  ret ptr %20
}